; ModuleID = '7/1252.c'
source_filename = "7/1252.c"
target datalayout = "e-m:e-p270:32:32-p271:32:32-p272:64:64-i64:64-f80:128-n8:16:32:64-S128"
target triple = "x86_64-pc-linux-gnu"

@.str = private unnamed_addr constant [9 x i8] c"%s %s %s\00", align 1
@.str.1 = private unnamed_addr constant [3 x i8] c"%c\00", align 1
@.str.2 = private unnamed_addr constant [3 x i8] c"%s\00", align 1

; Function Attrs: noinline nounwind uwtable
define dso_local i32 @comp(i8* %0, i8* %1, i32 %2) #0 {
  %4 = alloca i32, align 4
  %5 = alloca i8*, align 8
  %6 = alloca i8*, align 8
  %7 = alloca i32, align 4
  %8 = alloca i32, align 4
  %9 = alloca i32, align 4
  store i8* %0, i8** %5, align 8
  store i8* %1, i8** %6, align 8
  store i32 %2, i32* %7, align 4
  %10 = load i8*, i8** %6, align 8
  %11 = call i64 @strlen(i8* %10) #3
  %12 = trunc i64 %11 to i32
  store i32 %12, i32* %8, align 4
  store i32 0, i32* %9, align 4
  br label %13

13:                                               ; preds = %35, %3
  %14 = load i32, i32* %9, align 4
  %15 = load i32, i32* %8, align 4
  %16 = icmp slt i32 %14, %15
  br i1 %16, label %17, label %38

17:                                               ; preds = %13
  %18 = load i8*, i8** %5, align 8
  %19 = load i32, i32* %7, align 4
  %20 = load i32, i32* %9, align 4
  %21 = add nsw i32 %19, %20
  %22 = sext i32 %21 to i64
  %23 = getelementptr inbounds i8, i8* %18, i64 %22
  %24 = load i8, i8* %23, align 1
  %25 = sext i8 %24 to i32
  %26 = load i8*, i8** %6, align 8
  %27 = load i32, i32* %9, align 4
  %28 = sext i32 %27 to i64
  %29 = getelementptr inbounds i8, i8* %26, i64 %28
  %30 = load i8, i8* %29, align 1
  %31 = sext i8 %30 to i32
  %32 = icmp ne i32 %25, %31
  br i1 %32, label %33, label %34

33:                                               ; preds = %17
  store i32 0, i32* %4, align 4
  br label %39

34:                                               ; preds = %17
  br label %35

35:                                               ; preds = %34
  %36 = load i32, i32* %9, align 4
  %37 = add nsw i32 %36, 1
  store i32 %37, i32* %9, align 4
  br label %13

38:                                               ; preds = %13
  store i32 1, i32* %4, align 4
  br label %39

39:                                               ; preds = %38, %33
  %40 = load i32, i32* %4, align 4
  ret i32 %40
}

; Function Attrs: nounwind readonly
declare dso_local i64 @strlen(i8*) #1

; Function Attrs: noinline nounwind uwtable
define dso_local i32 @main(i32 %0, i8** %1) #0 {
  %3 = alloca i32, align 4
  %4 = alloca i32, align 4
  %5 = alloca i8**, align 8
  %6 = alloca i32, align 4
  %7 = alloca i32, align 4
  %8 = alloca i32, align 4
  %9 = alloca i32, align 4
  %10 = alloca i32, align 4
  %11 = alloca i32, align 4
  %12 = alloca [100 x i8], align 16
  %13 = alloca [100 x i8], align 16
  %14 = alloca [100 x i8], align 16
  store i32 0, i32* %3, align 4
  store i32 %0, i32* %4, align 4
  store i8** %1, i8*** %5, align 8
  store i32 0, i32* %11, align 4
  %15 = getelementptr inbounds [100 x i8], [100 x i8]* %12, i64 0, i64 0
  %16 = getelementptr inbounds [100 x i8], [100 x i8]* %13, i64 0, i64 0
  %17 = getelementptr inbounds [100 x i8], [100 x i8]* %14, i64 0, i64 0
  %18 = call i32 (i8*, ...) @__isoc99_scanf(i8* getelementptr inbounds ([9 x i8], [9 x i8]* @.str, i64 0, i64 0), i8* %15, i8* %16, i8* %17)
  %19 = getelementptr inbounds [100 x i8], [100 x i8]* %12, i64 0, i64 0
  %20 = call i64 @strlen(i8* %19) #3
  %21 = trunc i64 %20 to i32
  store i32 %21, i32* %8, align 4
  %22 = getelementptr inbounds [100 x i8], [100 x i8]* %13, i64 0, i64 0
  %23 = call i64 @strlen(i8* %22) #3
  %24 = trunc i64 %23 to i32
  store i32 %24, i32* %9, align 4
  %25 = getelementptr inbounds [100 x i8], [100 x i8]* %14, i64 0, i64 0
  %26 = call i64 @strlen(i8* %25) #3
  %27 = trunc i64 %26 to i32
  store i32 %27, i32* %10, align 4
  store i32 0, i32* %6, align 4
  br label %28

28:                                               ; preds = %102, %2
  %29 = load i32, i32* %6, align 4
  %30 = icmp slt i32 %29, 100
  br i1 %30, label %31, label %105

31:                                               ; preds = %28
  %32 = load i32, i32* %6, align 4
  %33 = sext i32 %32 to i64
  %34 = getelementptr inbounds [100 x i8], [100 x i8]* %12, i64 0, i64 %33
  %35 = load i8, i8* %34, align 1
  %36 = sext i8 %35 to i32
  %37 = getelementptr inbounds [100 x i8], [100 x i8]* %13, i64 0, i64 0
  %38 = load i8, i8* %37, align 16
  %39 = sext i8 %38 to i32
  %40 = icmp eq i32 %36, %39
  br i1 %40, label %41, label %88

41:                                               ; preds = %31
  %42 = getelementptr inbounds [100 x i8], [100 x i8]* %12, i64 0, i64 0
  %43 = getelementptr inbounds [100 x i8], [100 x i8]* %13, i64 0, i64 0
  %44 = load i32, i32* %6, align 4
  %45 = call i32 @comp(i8* %42, i8* %43, i32 %44)
  %46 = icmp ne i32 %45, 0
  br i1 %46, label %47, label %87

47:                                               ; preds = %41
  store i32 0, i32* %7, align 4
  br label %48

48:                                               ; preds = %59, %47
  %49 = load i32, i32* %7, align 4
  %50 = load i32, i32* %6, align 4
  %51 = icmp slt i32 %49, %50
  br i1 %51, label %52, label %62

52:                                               ; preds = %48
  %53 = load i32, i32* %7, align 4
  %54 = sext i32 %53 to i64
  %55 = getelementptr inbounds [100 x i8], [100 x i8]* %12, i64 0, i64 %54
  %56 = load i8, i8* %55, align 1
  %57 = sext i8 %56 to i32
  %58 = call i32 (i8*, ...) @printf(i8* getelementptr inbounds ([3 x i8], [3 x i8]* @.str.1, i64 0, i64 0), i32 %57)
  br label %59

59:                                               ; preds = %52
  %60 = load i32, i32* %7, align 4
  %61 = add nsw i32 %60, 1
  store i32 %61, i32* %7, align 4
  br label %48

62:                                               ; preds = %48
  %63 = getelementptr inbounds [100 x i8], [100 x i8]* %14, i64 0, i64 0
  %64 = call i32 (i8*, ...) @printf(i8* getelementptr inbounds ([3 x i8], [3 x i8]* @.str.2, i64 0, i64 0), i8* %63)
  %65 = load i32, i32* %7, align 4
  %66 = load i32, i32* %9, align 4
  %67 = add nsw i32 %65, %66
  store i32 %67, i32* %7, align 4
  br label %68

68:                                               ; preds = %83, %62
  %69 = load i32, i32* %7, align 4
  %70 = load i32, i32* %8, align 4
  %71 = load i32, i32* %9, align 4
  %72 = sub nsw i32 %70, %71
  %73 = load i32, i32* %10, align 4
  %74 = add nsw i32 %72, %73
  %75 = icmp slt i32 %69, %74
  br i1 %75, label %76, label %86

76:                                               ; preds = %68
  %77 = load i32, i32* %7, align 4
  %78 = sext i32 %77 to i64
  %79 = getelementptr inbounds [100 x i8], [100 x i8]* %12, i64 0, i64 %78
  %80 = load i8, i8* %79, align 1
  %81 = sext i8 %80 to i32
  %82 = call i32 (i8*, ...) @printf(i8* getelementptr inbounds ([3 x i8], [3 x i8]* @.str.1, i64 0, i64 0), i32 %81)
  br label %83

83:                                               ; preds = %76
  %84 = load i32, i32* %7, align 4
  %85 = add nsw i32 %84, 1
  store i32 %85, i32* %7, align 4
  br label %68

86:                                               ; preds = %68
  br label %105

87:                                               ; preds = %41
  br label %88

88:                                               ; preds = %87, %31
  %89 = load i32, i32* %11, align 4
  %90 = icmp eq i32 %89, 1
  br i1 %90, label %91, label %92

91:                                               ; preds = %88
  br label %105

92:                                               ; preds = %88
  %93 = load i32, i32* %6, align 4
  %94 = sext i32 %93 to i64
  %95 = getelementptr inbounds [100 x i8], [100 x i8]* %12, i64 0, i64 0
  %96 = call i64 @strlen(i8* %95) #3
  %97 = icmp eq i64 %94, %96
  br i1 %97, label %98, label %101

98:                                               ; preds = %92
  %99 = getelementptr inbounds [100 x i8], [100 x i8]* %12, i64 0, i64 0
  %100 = call i32 (i8*, ...) @printf(i8* getelementptr inbounds ([3 x i8], [3 x i8]* @.str.2, i64 0, i64 0), i8* %99)
  br label %101

101:                                              ; preds = %98, %92
  br label %102

102:                                              ; preds = %101
  %103 = load i32, i32* %6, align 4
  %104 = add nsw i32 %103, 1
  store i32 %104, i32* %6, align 4
  br label %28

105:                                              ; preds = %91, %86, %28
  ret i32 0
}

declare dso_local i32 @__isoc99_scanf(i8*, ...) #2

declare dso_local i32 @printf(i8*, ...) #2


!llvm.module.flags = !{!0}
!llvm.ident = !{!1}

!0 = !{i32 1, !"wchar_size", i32 4}
!1 = !{!"clang version 10.0.0-4ubuntu1 "}
